Certificate:
    Data:
        Version: 3 (0x2)
        Serial Number: 1408559753 (0x53f4ea89)
        Signature Algorithm: sha256WithRSAEncryption
        Issuer: C = AT, O = A-Trust Ges. f. Sicherheitssysteme im elektr. Datenverkehr GmbH, OU = A-Trust-Root-07, CN = A-Trust-Root-07
        Validity
            Not Before: May 17 11:23:22 2018 GMT
            Not After : Nov 19 10:23:22 2036 GMT
        Subject: C = AT, O = A-Trust Ges. f. Sicherheitssysteme im elektr. Datenverkehr GmbH, OU = A-Trust-Root-07, CN = A-Trust-Root-07
        Subject Public Key Info:
            Public Key Algorithm: rsaEncryption
                Public-Key: (4096 bit)
                Modulus:
                    00:a3:07:be:5e:01:fa:25:d8:05:8f:34:7f:91:13:
                    28:1f:5a:b9:c3:22:40:ef:2c:40:4a:a3:50:46:5d:
                    61:b8:d9:38:28:bb:96:5e:3f:0d:f1:a9:94:74:a6:
                    6f:8d:90:4a:6a:80:fd:0d:d9:ab:2a:02:bd:70:08:
                    e8:49:a1:ea:9b:f7:e6:13:9b:de:1f:29:00:f1:a8:
                    b5:1e:1a:78:4e:a2:c0:d7:05:a6:b7:c7:61:53:b5:
                    a0:85:91:b5:5a:54:3e:f7:cf:7d:fb:52:8e:12:70:
                    38:cc:9b:45:0c:df:89:95:a7:77:f8:e5:67:03:5b:
                    91:c2:01:d4:5b:0a:7b:7f:7d:58:2e:ac:0b:c3:b9:
                    77:3b:11:96:ee:9b:fc:e9:27:78:4b:d3:2b:d6:24:
                    be:02:7c:a8:89:23:75:d7:1e:25:1f:5f:62:92:a1:
                    22:f4:7e:c9:03:49:08:91:c5:99:cd:95:32:d2:5e:
                    7f:9f:29:48:28:c9:91:57:42:73:fa:7a:c1:b1:dd:
                    02:dc:02:a7:54:02:62:f3:84:93:00:58:c7:62:57:
                    cc:da:19:68:fb:28:50:bb:04:6d:67:4b:84:81:e3:
                    30:dc:7c:2f:7f:d1:2e:7a:2e:c5:62:a3:88:0a:d3:
                    5a:87:78:e8:f6:a7:51:2b:2d:72:83:a4:0d:8c:e4:
                    c9:e6:3d:a5:7c:ce:c1:c3:33:86:68:35:52:59:52:
                    18:93:ff:62:c9:6a:53:71:b7:b3:51:7e:80:a9:b9:
                    df:6a:fb:5d:1d:40:c6:57:b3:54:81:ba:46:4d:81:
                    5d:bc:d7:57:2b:ac:99:a7:92:e2:2a:9c:e6:5a:f2:
                    70:36:33:6b:5a:21:c7:0f:b7:c4:f2:57:00:35:ea:
                    74:24:94:2b:9f:06:eb:ce:ad:e3:d6:e5:e9:74:59:
                    50:b1:89:ef:7c:e5:5c:8a:d5:51:b5:e4:61:4f:6c:
                    d3:24:c9:e4:c2:bb:87:28:ae:b9:e6:9b:e3:4a:68:
                    4e:a3:96:59:65:46:5d:00:79:70:60:5d:68:4e:a3:
                    9c:9d:90:19:a8:6e:53:06:98:a6:79:54:a7:12:62:
                    76:a1:0e:3d:d6:6b:b7:4d:2e:aa:be:df:9d:a9:56:
                    1f:1d:47:63:ac:be:00:b2:c4:4c:4f:d6:5d:b7:b2:
                    eb:89:88:f6:72:65:5e:e1:f4:f1:ed:0c:66:a5:28:
                    51:67:7d:ac:a4:4b:aa:5a:45:9c:40:27:48:c6:f0:
                    39:1c:3b:85:53:bb:f1:b0:82:f0:06:4f:08:56:4c:
                    ac:f1:49:62:2e:d1:19:02:98:44:88:b6:9a:35:33:
                    f2:f7:8d:ce:bc:e3:3a:57:09:9f:0e:7d:f0:d8:21:
                    13:b5:61
                Exponent: 65537 (0x10001)
        X509v3 extensions:
            X509v3 Subject Key Identifier: 
                44:C0:11:AD:53:27:87:F4
            X509v3 Key Usage: critical
                Certificate Sign, CRL Sign
            X509v3 Basic Constraints: critical
                CA:TRUE
    Signature Algorithm: sha256WithRSAEncryption
    Signature Value:
        9f:47:48:ea:f2:bb:b4:56:b9:c7:3d:30:40:d4:d3:a3:95:96:
        18:f4:11:bf:84:b8:64:16:82:0a:a6:fa:84:95:fb:bc:9c:fb:
        a4:7c:38:ad:4d:54:81:16:34:60:d7:ef:50:99:ff:88:d2:2f:
        cf:a4:10:c8:87:02:60:19:79:1f:75:da:e0:83:71:73:ec:c9:
        80:92:21:8c:40:d5:e9:e7:96:02:54:08:9a:ba:42:6f:bf:a5:
        72:64:f9:ea:ff:16:d6:81:ef:96:ce:64:f2:8f:de:5c:15:8f:
        9f:18:63:86:5e:a5:c5:59:a7:ed:c6:08:60:64:fc:98:95:7a:
        01:f7:0d:3d:85:ca:32:eb:6d:21:b5:50:dc:96:8a:5a:41:73:
        d5:49:6e:a0:a5:38:58:b5:7e:c8:19:f4:fd:05:cb:fe:7f:c8:
        d4:4a:11:8d:07:3f:47:6b:48:0f:db:06:c4:ff:63:24:7c:f0:
        d7:24:7b:92:e5:e8:93:7d:9c:f9:5d:30:8e:eb:92:c3:30:9a:
        60:61:e0:1e:b5:c4:95:21:f5:53:d6:d3:98:1d:df:79:a3:6b:
        80:6d:97:a7:32:fd:c2:4a:69:fb:4c:9e:ab:3f:34:ad:76:fb:
        b0:9a:3d:86:3d:ef:c0:a6:ec:17:26:99:84:8b:28:b4:d1:c1:
        f3:a2:2c:01:a1:78:be:1a:b4:77:d5:98:cd:e3:72:f5:64:22:
        ba:5c:89:56:44:8d:3f:3d:eb:26:82:74:bb:fa:9e:f1:15:32:
        16:6c:13:97:a0:9c:a8:bd:c8:0f:75:a6:43:2d:70:6e:d0:6c:
        2d:c3:dd:57:67:59:6a:aa:fd:9f:f3:d2:05:9b:0d:da:af:e9:
        e7:23:31:91:e6:aa:59:bc:e8:71:ce:e8:36:99:d4:db:f7:9d:
        a2:6d:9a:92:f0:7d:86:62:39:4a:98:37:59:c4:4d:95:af:d6:
        7b:75:d0:77:8f:81:a9:ab:b5:6c:1c:3a:b0:50:0d:03:d3:23:
        8d:86:13:2e:86:d1:81:bb:dc:75:3c:c7:b4:4e:97:75:ec:a7:
        b0:44:33:15:21:ae:b7:13:9d:36:a6:4c:29:a6:99:a8:5e:a5:
        14:1c:43:12:05:f6:d6:c2:d7:2a:4f:e7:5d:22:17:f5:3e:37:
        cf:96:22:06:21:32:7b:05:53:ae:67:81:0f:f8:4c:e5:3f:c8:
        76:d2:6f:3b:90:c7:90:e8:9a:c5:f8:18:de:54:76:d9:45:5b:
        9c:5f:9a:69:b5:9e:00:e4:9b:8b:7b:73:4e:ba:59:cb:e4:c2:
        f3:61:dd:4e:24:39:45:86:d2:9c:5b:1b:8c:84:ea:26:22:2f:
        e2:16:cb:f2:d6:d7:61:88
-----BEGIN CERTIFICATE-----
MIIFzDCCA7SgAwIBAgIEU/TqiTANBgkqhkiG9w0BAQsFADCBizELMAkGA1UEBhMC
QVQxSDBGBgNVBAoMP0EtVHJ1c3QgR2VzLiBmLiBTaWNoZXJoZWl0c3N5c3RlbWUg
aW0gZWxla3RyLiBEYXRlbnZlcmtlaHIgR21iSDEYMBYGA1UECwwPQS1UcnVzdC1S
b290LTA3MRgwFgYDVQQDDA9BLVRydXN0LVJvb3QtMDcwHhcNMTgwNTE3MTEyMzIy
WhcNMzYxMTE5MTAyMzIyWjCBizELMAkGA1UEBhMCQVQxSDBGBgNVBAoMP0EtVHJ1
c3QgR2VzLiBmLiBTaWNoZXJoZWl0c3N5c3RlbWUgaW0gZWxla3RyLiBEYXRlbnZl
cmtlaHIgR21iSDEYMBYGA1UECwwPQS1UcnVzdC1Sb290LTA3MRgwFgYDVQQDDA9B
LVRydXN0LVJvb3QtMDcwggIiMA0GCSqGSIb3DQEBAQUAA4ICDwAwggIKAoICAQCj
B75eAfol2AWPNH+REygfWrnDIkDvLEBKo1BGXWG42Tgou5ZePw3xqZR0pm+NkEpq
gP0N2asqAr1wCOhJoeqb9+YTm94fKQDxqLUeGnhOosDXBaa3x2FTtaCFkbVaVD73
z337Uo4ScDjMm0UM34mVp3f45WcDW5HCAdRbCnt/fVgurAvDuXc7EZbum/zpJ3hL
0yvWJL4CfKiJI3XXHiUfX2KSoSL0fskDSQiRxZnNlTLSXn+fKUgoyZFXQnP6esGx
3QLcAqdUAmLzhJMAWMdiV8zaGWj7KFC7BG1nS4SB4zDcfC9/0S56LsVio4gK01qH
eOj2p1ErLXKDpA2M5MnmPaV8zsHDM4ZoNVJZUhiT/2LJalNxt7NRfoCpud9q+10d
QMZXs1SBukZNgV2811crrJmnkuIqnOZa8nA2M2taIccPt8TyVwA16nQklCufBuvO
rePW5el0WVCxie985VyK1VG15GFPbNMkyeTCu4corrnmm+NKaE6jllllRl0AeXBg
XWhOo5ydkBmoblMGmKZ5VKcSYnahDj3Wa7dNLqq+352pVh8dR2OsvgCyxExP1l23
suuJiPZyZV7h9PHtDGalKFFnfaykS6paRZxAJ0jG8DkcO4VTu/GwgvAGTwhWTKzx
SWIu0RkCmESItpo1M/L3jc684zpXCZ8OffDYIRO1YQIDAQABozYwNDARBgNVHQ4E
CgQIRMARrVMnh/QwDgYDVR0PAQH/BAQDAgEGMA8GA1UdEwEB/wQFMAMBAf8wDQYJ
KoZIhvcNAQELBQADggIBAJ9HSOryu7RWucc9MEDU06OVlhj0Eb+EuGQWggqm+oSV
+7yc+6R8OK1NVIEWNGDX71CZ/4jSL8+kEMiHAmAZeR912uCDcXPsyYCSIYxA1enn
lgJUCJq6Qm+/pXJk+er/FtaB75bOZPKP3lwVj58YY4ZepcVZp+3GCGBk/JiVegH3
DT2FyjLrbSG1UNyWilpBc9VJbqClOFi1fsgZ9P0Fy/5/yNRKEY0HP0drSA/bBsT/
YyR88Ncke5Ll6JN9nPldMI7rksMwmmBh4B61xJUh9VPW05gd33mja4Btl6cy/cJK
aftMnqs/NK12+7CaPYY978Cm7BcmmYSLKLTRwfOiLAGheL4atHfVmM3jcvVkIrpc
iVZEjT896yaCdLv6nvEVMhZsE5egnKi9yA91pkMtcG7QbC3D3VdnWWqq/Z/z0gWb
Ddqv6ecjMZHmqlm86HHO6DaZ1Nv3naJtmpLwfYZiOUqYN1nETZWv1nt10HePgamr
tWwcOrBQDQPTI42GEy6G0YG73HU8x7ROl3Xsp7BEMxUhrrcTnTamTCmmmahepRQc
QxIF9tbC1ypP510iF/U+N8+WIgYhMnsFU65ngQ/4TOU/yHbSbzuQx5DomsX4GN5U
dtlFW5xfmmm1ngDkm4t7c066WcvkwvNh3U4kOUWG0pxbG4yE6iYiL+IWy/LW12GI
-----END CERTIFICATE-----
